target datalayout = "e-m:e-p270:32:32-p271:32:32-p272:64:64-i64:64-i128:128-f80:128-n8:16:32:64-S128"
target triple = "x86_64-pc-linux-gnu"

%struct.UConverter = type { ptr, ptr, ptr, ptr, ptr, ptr, ptr, i32, i8, i8, i8, i8, i8, [7 x i8], i32, i32, i32, i32, i8, i8, i8, i8, i8, i8, i8, i8, [8 x i8], [32 x i8], [2 x i16], [2 x i16], [32 x i16], i32, [19 x i16], [31 x i8], i8, i8, i8, i32 }
%struct.UConverterDataISCII = type { i16, i16, i16, i16, i16, i32, i32, i32, i8, i8, [16 x i8], i32 }

; Function Attrs: mustprogress nounwind uwtable
define internal void @_ZL11_ISCIIResetP10UConverter21UConverterResetChoice(ptr noundef %0, i32 noundef %1) #1 {
  %3 = alloca ptr, align 8
  %4 = alloca i32, align 4
  %5 = alloca ptr, align 8
  store ptr %0, ptr %3, align 8, !tbaa !3
  store i32 %1, ptr %4, align 4, !tbaa !44
  call void @llvm.lifetime.start.p0(i64 8, ptr %5) #10
  %6 = load ptr, ptr %3, align 8, !tbaa !3
  %7 = getelementptr inbounds nuw %struct.UConverter, ptr %6, i32 0, i32 2
  %8 = load ptr, ptr %7, align 8, !tbaa !14
  store ptr %8, ptr %5, align 8, !tbaa !8
  %9 = load i32, ptr %4, align 4, !tbaa !44
  %10 = icmp sle i32 %9, 1
  br i1 %10, label %11, label %30

11:                                               ; preds = %2
  %12 = load ptr, ptr %3, align 8, !tbaa !3
  %13 = getelementptr inbounds nuw %struct.UConverter, ptr %12, i32 0, i32 14
  store i32 65535, ptr %13, align 8, !tbaa !23
  %14 = load ptr, ptr %3, align 8, !tbaa !3
  %15 = getelementptr inbounds nuw %struct.UConverter, ptr %14, i32 0, i32 15
  store i32 0, ptr %15, align 4, !tbaa !46
  %16 = load ptr, ptr %5, align 8, !tbaa !8
  %17 = getelementptr inbounds nuw %struct.UConverterDataISCII, ptr %16, i32 0, i32 2
  %18 = load i16, ptr %17, align 4, !tbaa !31
  %19 = load ptr, ptr %5, align 8, !tbaa !8
  %20 = getelementptr inbounds nuw %struct.UConverterDataISCII, ptr %19, i32 0, i32 4
  store i16 %18, ptr %20, align 4, !tbaa !32
  %21 = load ptr, ptr %5, align 8, !tbaa !8
  %22 = getelementptr inbounds nuw %struct.UConverterDataISCII, ptr %21, i32 0, i32 7
  %23 = load i32, ptr %22, align 4, !tbaa !35
  %24 = load ptr, ptr %5, align 8, !tbaa !8
  %25 = getelementptr inbounds nuw %struct.UConverterDataISCII, ptr %24, i32 0, i32 6
  store i32 %23, ptr %25, align 4, !tbaa !36
  %26 = load ptr, ptr %5, align 8, !tbaa !8
  %27 = getelementptr inbounds nuw %struct.UConverterDataISCII, ptr %26, i32 0, i32 0
  store i16 -2, ptr %27, align 4, !tbaa !19
  %28 = load ptr, ptr %5, align 8, !tbaa !8
  %29 = getelementptr inbounds nuw %struct.UConverterDataISCII, ptr %28, i32 0, i32 11
  store i32 0, ptr %29, align 4, !tbaa !40
  br label %30

30:                                               ; preds = %11, %2
  %31 = load i32, ptr %4, align 4, !tbaa !44
  %32 = icmp ne i32 %31, 1
  br i1 %32, label %33, label %52

33:                                               ; preds = %30
  %34 = load ptr, ptr %3, align 8, !tbaa !3
  %35 = getelementptr inbounds nuw %struct.UConverter, ptr %34, i32 0, i32 17
  store i32 0, ptr %35, align 4, !tbaa !47
  %36 = load ptr, ptr %5, align 8, !tbaa !8
  %37 = getelementptr inbounds nuw %struct.UConverterDataISCII, ptr %36, i32 0, i32 1
  store i16 0, ptr %37, align 2, !tbaa !24
  %38 = load ptr, ptr %5, align 8, !tbaa !8
  %39 = getelementptr inbounds nuw %struct.UConverterDataISCII, ptr %38, i32 0, i32 7
  %40 = load i32, ptr %39, align 4, !tbaa !35
  %41 = load ptr, ptr %5, align 8, !tbaa !8
  %42 = getelementptr inbounds nuw %struct.UConverterDataISCII, ptr %41, i32 0, i32 5
  store i32 %40, ptr %42, align 4, !tbaa !37
  %43 = load ptr, ptr %5, align 8, !tbaa !8
  %44 = getelementptr inbounds nuw %struct.UConverterDataISCII, ptr %43, i32 0, i32 2
  %45 = load i16, ptr %44, align 4, !tbaa !31
  %46 = load ptr, ptr %5, align 8, !tbaa !8
  %47 = getelementptr inbounds nuw %struct.UConverterDataISCII, ptr %46, i32 0, i32 3
  store i16 %45, ptr %47, align 2, !tbaa !33
  %48 = load ptr, ptr %5, align 8, !tbaa !8
  %49 = getelementptr inbounds nuw %struct.UConverterDataISCII, ptr %48, i32 0, i32 8
  store i8 1, ptr %49, align 4, !tbaa !38
  %50 = load ptr, ptr %5, align 8, !tbaa !8
  %51 = getelementptr inbounds nuw %struct.UConverterDataISCII, ptr %50, i32 0, i32 9
  store i8 0, ptr %51, align 1, !tbaa !25
  br label %52

52:                                               ; preds = %33, %30
  call void @llvm.lifetime.end.p0(i64 8, ptr %5) #10
  ret void
}