; Function Attrs: mustprogress nofree norecurse nosync nounwind willreturn memory(readwrite, inaccessiblemem: none) uwtable
define internal void @_ZL11_ISCIIResetP10UConverter21UConverterResetChoice(ptr noundef captures(none) %0, i32 noundef %1) #1 {
  %3 = getelementptr inbounds nuw i8, ptr %0, i64 16
  %4 = load ptr, ptr %3, align 8, !tbaa !11
  %5 = icmp slt i32 %1, 2
  br i1 %5, label %6, label %..thread_crit_edge

..thread_crit_edge:                               ; preds = %2
  %.phi.trans.insert = getelementptr inbounds nuw i8, ptr %4, i64 20
  %.pre = load i32, ptr %.phi.trans.insert, align 4, !tbaa !31
  %.phi.trans.insert19 = getelementptr inbounds nuw i8, ptr %4, i64 4
  %.pre20 = load i16, ptr %.phi.trans.insert19, align 4, !tbaa !27
  br label %.thread

6:                                                ; preds = %2
  %7 = getelementptr inbounds nuw i8, ptr %0, i64 72
  store i32 65535, ptr %7, align 8, !tbaa !19
  %8 = getelementptr inbounds nuw i8, ptr %0, i64 76
  store i32 0, ptr %8, align 4, !tbaa !40
  %9 = getelementptr inbounds nuw i8, ptr %4, i64 4
  %10 = load i16, ptr %9, align 4, !tbaa !27
  %11 = getelementptr inbounds nuw i8, ptr %4, i64 8
  store i16 %10, ptr %11, align 4, !tbaa !28
  %12 = getelementptr inbounds nuw i8, ptr %4, i64 20
  %13 = load i32, ptr %12, align 4, !tbaa !31
  %14 = getelementptr inbounds nuw i8, ptr %4, i64 16
  store i32 %13, ptr %14, align 4, !tbaa !32
  store i16 -2, ptr %4, align 4, !tbaa !15
  %15 = getelementptr inbounds nuw i8, ptr %4, i64 44
  store i32 0, ptr %15, align 4, !tbaa !36
  %.not = icmp eq i32 %1, 1
  br i1 %.not, label %24, label %.thread

.thread:                                          ; preds = %..thread_crit_edge, %6
  %16 = phi i16 [ %.pre20, %..thread_crit_edge ], [ %10, %6 ]
  %17 = phi i32 [ %.pre, %..thread_crit_edge ], [ %13, %6 ]
  %18 = getelementptr inbounds nuw i8, ptr %0, i64 84
  store i32 0, ptr %18, align 4, !tbaa !41
  %19 = getelementptr inbounds nuw i8, ptr %4, i64 2
  store i16 0, ptr %19, align 2, !tbaa !20
  %20 = getelementptr inbounds nuw i8, ptr %4, i64 12
  store i32 %17, ptr %20, align 4, !tbaa !33
  %21 = getelementptr inbounds nuw i8, ptr %4, i64 6
  store i16 %16, ptr %21, align 2, !tbaa !29
  %22 = getelementptr inbounds nuw i8, ptr %4, i64 24
  store i8 1, ptr %22, align 4, !tbaa !34
  %23 = getelementptr inbounds nuw i8, ptr %4, i64 25
  store i8 0, ptr %23, align 1, !tbaa !21
  br label %24

24:                                               ; preds = %.thread, %6
  ret void
}